; Function Attrs: mustprogress nofree norecurse nosync nounwind willreturn memory(read, argmem: readwrite, inaccessiblemem: none) uwtable
define hidden i64 @inStream_readFrameID(ptr nocapture noundef %0) local_unnamed_addr #5 {
  %2 = getelementptr inbounds i8, ptr %0, i64 12
  %3 = load i16, ptr %2, align 4
  %.not.i.i = icmp eq i16 %3, 0
  br i1 %.not.i.i, label %4, label %inStream_readLong.exit

4:                                                ; preds = %1
  %5 = getelementptr inbounds i8, ptr %0, i64 8
  %6 = load i32, ptr %5, align 8
  %7 = icmp slt i32 %6, 8
  br i1 %7, label %8, label %9

8:                                                ; preds = %4
  store i16 113, ptr %2, align 4
  br label %inStream_readLong.exit

9:                                                ; preds = %4
  %10 = load ptr, ptr %0, align 8
  %.0.copyload.i = load i64, ptr %10, align 1
  %11 = getelementptr inbounds i8, ptr %10, i64 8
  store ptr %11, ptr %0, align 8
  %12 = add nsw i32 %6, -8
  store i32 %12, ptr %5, align 8
  br label %inStream_readLong.exit

inStream_readLong.exit:                           ; preds = %1, %8, %9
  %.0.i = phi i64 [ 0, %8 ], [ %.0.copyload.i, %9 ], [ 0, %1 ]
  %13 = tail call i64 @llvm.bswap.i64(i64 %.0.i)
  ret i64 %13
}